target datalayout = "e-m:e-p270:32:32-p271:32:32-p272:64:64-i64:64-i128:128-f80:128-n8:16:32:64-S128"
target triple = "x86_64-pc-linux-gnu"

%class.RtpAudioFile = type { %class.QIODevice, ptr, ptr, i64, i64, i64, i64, %struct.rtp_frame_info }
%class.QIODevice = type { %class.QObject }
%class.QObject = type { ptr, %class.QScopedPointer }
%class.QScopedPointer = type { ptr }
%struct.rtp_frame_info = type { i64, i64, i64, i32, i32 }

; Function Attrs: mustprogress nounwind uwtable
define void @_ZN12RtpAudioFile23frameUpdateRealCountersEx(ptr noundef nonnull align 8 dereferenceable(96) %0, i64 noundef %1) #2 align 2 {
  %3 = alloca ptr, align 8
  %4 = alloca i64, align 8
  %5 = alloca i64, align 8
  store ptr %0, ptr %3, align 8
  store i64 %1, ptr %4, align 8
  %6 = load ptr, ptr %3, align 8
  %7 = getelementptr inbounds %class.RtpAudioFile, ptr %6, i32 0, i32 3
  %8 = load i64, ptr %7, align 8
  %9 = getelementptr inbounds %class.RtpAudioFile, ptr %6, i32 0, i32 4
  %10 = load i64, ptr %9, align 8
  %11 = icmp slt i64 %8, %10
  br i1 %11, label %12, label %28

12:                                               ; preds = %2
  %13 = getelementptr inbounds %class.RtpAudioFile, ptr %6, i32 0, i32 3
  %14 = load i64, ptr %13, align 8
  %15 = load i64, ptr %4, align 8
  %16 = add i64 %14, %15
  %17 = getelementptr inbounds %class.RtpAudioFile, ptr %6, i32 0, i32 4
  %18 = load i64, ptr %17, align 8
  %19 = sub i64 %16, %18
  store i64 %19, ptr %5, align 8
  %20 = load i64, ptr %5, align 8
  %21 = icmp sgt i64 %20, 0
  br i1 %21, label %22, label %27

22:                                               ; preds = %12
  %23 = load i64, ptr %5, align 8
  %24 = getelementptr inbounds %class.RtpAudioFile, ptr %6, i32 0, i32 4
  %25 = load i64, ptr %24, align 8
  %26 = add i64 %25, %23
  store i64 %26, ptr %24, align 8
  br label %27

27:                                               ; preds = %22, %12
  br label %33

28:                                               ; preds = %2
  %29 = load i64, ptr %4, align 8
  %30 = getelementptr inbounds %class.RtpAudioFile, ptr %6, i32 0, i32 4
  %31 = load i64, ptr %30, align 8
  %32 = add i64 %31, %29
  store i64 %32, ptr %30, align 8
  br label %33

33:                                               ; preds = %28, %27
  %34 = load i64, ptr %4, align 8
  %35 = getelementptr inbounds %class.RtpAudioFile, ptr %6, i32 0, i32 3
  %36 = load i64, ptr %35, align 8
  %37 = add i64 %36, %34
  store i64 %37, ptr %35, align 8
  ret void
}

; Function Attrs: mustprogress uwtable
define noundef i64 @_ZN12RtpAudioFile15frameWriteFrameEjxxx14rtp_frame_type(ptr noundef nonnull align 8 dereferenceable(96) %0, i32 noundef %1, i64 noundef %2, i64 noundef %3, i64 noundef %4, i32 noundef %5) #0 align 2 {
  %7 = alloca ptr, align 8
  %8 = alloca i32, align 4
  %9 = alloca i64, align 8
  %10 = alloca i64, align 8
  %11 = alloca i64, align 8
  %12 = alloca i32, align 4
  %13 = alloca %struct.rtp_frame_info, align 8
  store ptr %0, ptr %7, align 8
  store i32 %1, ptr %8, align 4
  store i64 %2, ptr %9, align 8
  store i64 %3, ptr %10, align 8
  store i64 %4, ptr %11, align 8
  store i32 %5, ptr %12, align 4
  %14 = load ptr, ptr %7, align 8
  %15 = load i64, ptr %9, align 8
  %16 = getelementptr inbounds %struct.rtp_frame_info, ptr %13, i32 0, i32 0
  store i64 %15, ptr %16, align 8
  %17 = load i64, ptr %10, align 8
  %18 = getelementptr inbounds %struct.rtp_frame_info, ptr %13, i32 0, i32 1
  store i64 %17, ptr %18, align 8
  %19 = load i64, ptr %11, align 8
  %20 = getelementptr inbounds %struct.rtp_frame_info, ptr %13, i32 0, i32 2
  store i64 %19, ptr %20, align 8
  %21 = load i32, ptr %8, align 4
  %22 = getelementptr inbounds %struct.rtp_frame_info, ptr %13, i32 0, i32 3
  store i32 %21, ptr %22, align 8
  %23 = load i32, ptr %12, align 4
  %24 = getelementptr inbounds %struct.rtp_frame_info, ptr %13, i32 0, i32 4
  store i32 %23, ptr %24, align 4
  %25 = getelementptr inbounds %class.RtpAudioFile, ptr %14, i32 0, i32 2
  %26 = load ptr, ptr %25, align 8
  %27 = call noundef i64 @_ZN9QIODevice5writeEPKcx(ptr noundef nonnull align 8 dereferenceable(16) %26, ptr noundef %13, i64 noundef 32)
  ret i64 %27
}

; Function Attrs: mustprogress uwtable
define void @_ZN12RtpAudioFile17frameWriteSilenceEjx(ptr noundef nonnull align 8 dereferenceable(96) %0, i32 noundef %1, i64 noundef %2) #0 align 2 {
  %4 = alloca ptr, align 8
  %5 = alloca i32, align 4
  %6 = alloca i64, align 8
  %7 = alloca i64, align 8
  store ptr %0, ptr %4, align 8
  store i32 %1, ptr %5, align 4
  store i64 %2, ptr %6, align 8
  %8 = load ptr, ptr %4, align 8
  %9 = load i64, ptr %6, align 8
  %10 = icmp slt i64 %9, 1
  br i1 %10, label %11, label %12

11:                                               ; preds = %3
  br label %23

12:                                               ; preds = %3
  %13 = load i64, ptr %6, align 8
  %14 = mul i64 %13, 2
  store i64 %14, ptr %7, align 8
  %15 = load i32, ptr %5, align 4
  %16 = getelementptr inbounds %class.RtpAudioFile, ptr %8, i32 0, i32 3
  %17 = load i64, ptr %16, align 8
  %18 = getelementptr inbounds %class.RtpAudioFile, ptr %8, i32 0, i32 5
  %19 = load i64, ptr %18, align 8
  %20 = load i64, ptr %7, align 8
  %21 = call noundef i64 @_ZN12RtpAudioFile15frameWriteFrameEjxxx14rtp_frame_type(ptr noundef nonnull align 8 dereferenceable(96) %8, i32 noundef %15, i64 noundef %17, i64 noundef %19, i64 noundef %20, i32 noundef 1)
  %22 = load i64, ptr %7, align 8
  call void @_ZN12RtpAudioFile23frameUpdateRealCountersEx(ptr noundef nonnull align 8 dereferenceable(96) %8, i64 noundef %22)
  br label %23

23:                                               ; preds = %12, %11
  ret void
}