; Function Attrs: mustprogress uwtable
define void @_ZN12RtpAudioFile17frameWriteSilenceEjx(ptr nocapture noundef nonnull align 8 dereferenceable(96) %0, i32 noundef %1, i64 noundef %2) local_unnamed_addr #0 align 2 {
  %4 = alloca %struct.rtp_frame_info, align 8
  %5 = icmp slt i64 %2, 1
  br i1 %5, label %30, label %6

6:                                                ; preds = %3
  %7 = shl nuw i64 %2, 1
  %8 = getelementptr inbounds i8, ptr %0, i64 32
  %9 = load i64, ptr %8, align 8
  %10 = getelementptr inbounds i8, ptr %0, i64 48
  %11 = load i64, ptr %10, align 8
  call void @llvm.lifetime.start.p0(i64 32, ptr nonnull %4)
  store i64 %9, ptr %4, align 8
  %12 = getelementptr inbounds i8, ptr %4, i64 8
  store i64 %11, ptr %12, align 8
  %13 = getelementptr inbounds i8, ptr %4, i64 16
  store i64 %7, ptr %13, align 8
  %14 = getelementptr inbounds i8, ptr %4, i64 24
  store i32 %1, ptr %14, align 8
  %15 = getelementptr inbounds i8, ptr %4, i64 28
  store i32 1, ptr %15, align 4
  %16 = getelementptr inbounds i8, ptr %0, i64 24
  %17 = load ptr, ptr %16, align 8
  %18 = call noundef i64 @_ZN9QIODevice5writeEPKcx(ptr noundef nonnull align 8 dereferenceable(16) %17, ptr noundef nonnull %4, i64 noundef 32)
  call void @llvm.lifetime.end.p0(i64 32, ptr nonnull %4)
  %19 = load i64, ptr %8, align 8
  %20 = getelementptr inbounds i8, ptr %0, i64 40
  %21 = load i64, ptr %20, align 8
  %22 = icmp slt i64 %19, %21
  br i1 %22, label %23, label %28

23:                                               ; preds = %6
  %24 = add i64 %19, %7
  %25 = sub i64 %24, %21
  %26 = icmp sgt i64 %25, 0
  br i1 %26, label %27, label %_ZN12RtpAudioFile23frameUpdateRealCountersEx.exit

27:                                               ; preds = %23
  store i64 %24, ptr %20, align 8
  br label %_ZN12RtpAudioFile23frameUpdateRealCountersEx.exit

28:                                               ; preds = %6
  %29 = add i64 %21, %7
  store i64 %29, ptr %20, align 8
  %.pre.i = add i64 %19, %7
  br label %_ZN12RtpAudioFile23frameUpdateRealCountersEx.exit

_ZN12RtpAudioFile23frameUpdateRealCountersEx.exit: ; preds = %23, %27, %28
  %.pre-phi.i = phi i64 [ %24, %23 ], [ %24, %27 ], [ %.pre.i, %28 ]
  store i64 %.pre-phi.i, ptr %8, align 8
  br label %30

30:                                               ; preds = %3, %_ZN12RtpAudioFile23frameUpdateRealCountersEx.exit
  ret void
}